target datalayout = "e-m:e-p270:32:32-p271:32:32-p272:64:64-i64:64-i128:128-f80:128-n8:16:32:64-S128"
target triple = "x86_64-pc-linux-gnu"

%struct.JNINativeInterface_ = type { ptr, ptr, ptr, ptr, ptr, ptr, ptr, ptr, ptr, ptr, ptr, ptr, ptr, ptr, ptr, ptr, ptr, ptr, ptr, ptr, ptr, ptr, ptr, ptr, ptr, ptr, ptr, ptr, ptr, ptr, ptr, ptr, ptr, ptr, ptr, ptr, ptr, ptr, ptr, ptr, ptr, ptr, ptr, ptr, ptr, ptr, ptr, ptr, ptr, ptr, ptr, ptr, ptr, ptr, ptr, ptr, ptr, ptr, ptr, ptr, ptr, ptr, ptr, ptr, ptr, ptr, ptr, ptr, ptr, ptr, ptr, ptr, ptr, ptr, ptr, ptr, ptr, ptr, ptr, ptr, ptr, ptr, ptr, ptr, ptr, ptr, ptr, ptr, ptr, ptr, ptr, ptr, ptr, ptr, ptr, ptr, ptr, ptr, ptr, ptr, ptr, ptr, ptr, ptr, ptr, ptr, ptr, ptr, ptr, ptr, ptr, ptr, ptr, ptr, ptr, ptr, ptr, ptr, ptr, ptr, ptr, ptr, ptr, ptr, ptr, ptr, ptr, ptr, ptr, ptr, ptr, ptr, ptr, ptr, ptr, ptr, ptr, ptr, ptr, ptr, ptr, ptr, ptr, ptr, ptr, ptr, ptr, ptr, ptr, ptr, ptr, ptr, ptr, ptr, ptr, ptr, ptr, ptr, ptr, ptr, ptr, ptr, ptr, ptr, ptr, ptr, ptr, ptr, ptr, ptr, ptr, ptr, ptr, ptr, ptr, ptr, ptr, ptr, ptr, ptr, ptr, ptr, ptr, ptr, ptr, ptr, ptr, ptr, ptr, ptr, ptr, ptr, ptr, ptr, ptr, ptr, ptr, ptr, ptr, ptr, ptr, ptr, ptr, ptr, ptr, ptr, ptr, ptr, ptr, ptr, ptr, ptr, ptr, ptr, ptr, ptr, ptr, ptr, ptr, ptr, ptr, ptr, ptr, ptr, ptr, ptr, ptr, ptr, ptr, ptr, ptr, ptr, ptr, ptr, ptr }
%struct.sctp_initmsg = type { i16, i16, i16, i16 }

@.str.4 = private unnamed_addr constant [25 x i8] c"java/net/SocketException\00", align 1
@.str.23 = private unnamed_addr constant [37 x i8] c"sun.nio.ch.SctpNet.getInitMsgOption0\00", align 1

; Function Attrs: nounwind uwtable
define void @Java_sun_nio_ch_sctp_SctpNet_getInitMsgOption0(ptr noundef %0, ptr noundef %1, i32 noundef %2, ptr noundef %3) #0 {
  %5 = alloca ptr, align 8
  %6 = alloca ptr, align 8
  %7 = alloca i32, align 4
  %8 = alloca ptr, align 8
  %9 = alloca %struct.sctp_initmsg, align 2
  %10 = alloca i32, align 4
  %11 = alloca [2 x i32], align 4
  store ptr %0, ptr %5, align 8
  store ptr %1, ptr %6, align 8
  store i32 %2, ptr %7, align 4
  store ptr %3, ptr %8, align 8
  store i32 8, ptr %10, align 4
  %12 = load i32, ptr %7, align 4
  %13 = call i32 @getsockopt(i32 noundef %12, i32 noundef 132, i32 noundef 2, ptr noundef %9, ptr noundef %10) #7
  %14 = icmp slt i32 %13, 0
  br i1 %14, label %15, label %17

15:                                               ; preds = %4
  %16 = load ptr, ptr %5, align 8
  call void @JNU_ThrowByNameWithLastError(ptr noundef %16, ptr noundef @.str.4, ptr noundef @.str.23)
  br label %33

17:                                               ; preds = %4
  %18 = getelementptr inbounds %struct.sctp_initmsg, ptr %9, i32 0, i32 1
  %19 = load i16, ptr %18, align 2
  %20 = zext i16 %19 to i32
  %21 = getelementptr inbounds [2 x i32], ptr %11, i64 0, i64 0
  store i32 %20, ptr %21, align 4
  %22 = getelementptr inbounds %struct.sctp_initmsg, ptr %9, i32 0, i32 0
  %23 = load i16, ptr %22, align 2
  %24 = zext i16 %23 to i32
  %25 = getelementptr inbounds [2 x i32], ptr %11, i64 0, i64 1
  store i32 %24, ptr %25, align 4
  %26 = load ptr, ptr %5, align 8
  %27 = load ptr, ptr %26, align 8
  %28 = getelementptr inbounds %struct.JNINativeInterface_, ptr %27, i32 0, i32 211
  %29 = load ptr, ptr %28, align 8
  %30 = load ptr, ptr %5, align 8
  %31 = load ptr, ptr %8, align 8
  %32 = getelementptr inbounds [2 x i32], ptr %11, i64 0, i64 0
  call void %29(ptr noundef %30, ptr noundef %31, i32 noundef 0, i32 noundef 2, ptr noundef %32)
  br label %33

33:                                               ; preds = %17, %15
  ret void
}