; Function Attrs: nounwind uwtable
define void @Java_sun_nio_ch_sctp_SctpNet_getInitMsgOption0(ptr noundef %0, ptr nocapture noundef readnone %1, i32 noundef %2, ptr noundef %3) local_unnamed_addr #1 {
  %5 = alloca %struct.sctp_initmsg, align 2
  %6 = alloca i32, align 4
  %7 = alloca [2 x i32], align 4
  store i32 8, ptr %6, align 4
  %8 = call i32 @getsockopt(i32 noundef %2, i32 noundef 132, i32 noundef 2, ptr noundef nonnull %5, ptr noundef nonnull %6) #10
  %9 = icmp slt i32 %8, 0
  br i1 %9, label %10, label %11

10:                                               ; preds = %4
  call void @JNU_ThrowByNameWithLastError(ptr noundef %0, ptr noundef nonnull @.str.4, ptr noundef nonnull @.str.23) #10
  br label %21

11:                                               ; preds = %4
  %12 = getelementptr inbounds i8, ptr %5, i64 2
  %13 = load i16, ptr %12, align 2
  %14 = zext i16 %13 to i32
  store i32 %14, ptr %7, align 4
  %15 = load i16, ptr %5, align 2
  %16 = zext i16 %15 to i32
  %17 = getelementptr inbounds i8, ptr %7, i64 4
  store i32 %16, ptr %17, align 4
  %18 = load ptr, ptr %0, align 8
  %19 = getelementptr inbounds i8, ptr %18, i64 1688
  %20 = load ptr, ptr %19, align 8
  call void %20(ptr noundef nonnull %0, ptr noundef %3, i32 noundef 0, i32 noundef 2, ptr noundef nonnull %7) #10
  br label %21

21:                                               ; preds = %11, %10
  ret void
}